target datalayout = "e-m:e-p270:32:32-p271:32:32-p272:64:64-i64:64-i128:128-f80:128-n8:16:32:64-S128"
target triple = "x86_64-pc-linux-gnu"

@proto_register_cesoeth.ett = internal global [2 x ptr] [ptr @ett_cesoeth, ptr @ett_cesoeth_cw], align 16
@.str.32 = private unnamed_addr constant [40 x i8] c"Circuit Emulation Service over Ethernet\00", align 1
@.str.33 = private unnamed_addr constant [8 x i8] c"CESoETH\00", align 1
@.str.34 = private unnamed_addr constant [8 x i8] c"cesoeth\00", align 1
@proto_cesoeth = internal global i32 0, align 4
@.str.35 = private unnamed_addr constant [11 x i8] c"rtp_header\00", align 1
@.str.36 = private unnamed_addr constant [26 x i8] c"RTP header in CES payload\00", align 1
@.str.37 = private unnamed_addr constant [61 x i8] c"Whether or not the RTP header is present in the CES payload.\00", align 1
@has_rtp_header = internal global i8 0, align 1
@.str.38 = private unnamed_addr constant [21 x i8] c"rtp_header_heuristic\00", align 1
@.str.39 = private unnamed_addr constant [38 x i8] c"Try to find RTP header in CES payload\00", align 1
@.str.40 = private unnamed_addr constant [72 x i8] c"Heuristically determine if an RTP header is present in the CES payload.\00", align 1
@heuristic_rtp_header = internal global i8 1, align 1
@cesoeth_handle = internal global ptr null, align 8

; Function Attrs: null_pointer_is_valid sspstrong uwtable
define hidden void @proto_register_cesoeth() #0 {
  %1 = alloca ptr, align 8
  %2 = alloca ptr, align 8
  call void @llvm.lifetime.start.p0(i64 8, ptr %1) #3
  call void @llvm.lifetime.start.p0(i64 8, ptr %2) #3
  %3 = call i32 @proto_register_protocol(ptr noundef @.str.32, ptr noundef @.str.33, ptr noundef @.str.34)
  store i32 %3, ptr @proto_cesoeth, align 4
  %4 = load i32, ptr @proto_cesoeth, align 4
  call void @proto_register_field_array(i32 noundef %4, ptr noundef @proto_register_cesoeth.hf, i32 noundef 12)
  call void @proto_register_subtree_array(ptr noundef @proto_register_cesoeth.ett, i32 noundef 2)
  %5 = load i32, ptr @proto_cesoeth, align 4
  %6 = call ptr @expert_register_protocol(i32 noundef %5)
  store ptr %6, ptr %2, align 8
  %7 = load ptr, ptr %2, align 8
  call void @expert_register_field_array(ptr noundef %7, ptr noundef @proto_register_cesoeth.ei, i32 noundef 2)
  %8 = load i32, ptr @proto_cesoeth, align 4
  %9 = call ptr @prefs_register_protocol(i32 noundef %8, ptr noundef null)
  store ptr %9, ptr %1, align 8
  %10 = load ptr, ptr %1, align 8
  call void @prefs_register_bool_preference(ptr noundef %10, ptr noundef @.str.35, ptr noundef @.str.36, ptr noundef @.str.37, ptr noundef @has_rtp_header)
  %11 = load ptr, ptr %1, align 8
  call void @prefs_register_bool_preference(ptr noundef %11, ptr noundef @.str.38, ptr noundef @.str.39, ptr noundef @.str.40, ptr noundef @heuristic_rtp_header)
  %12 = load i32, ptr @proto_cesoeth, align 4
  %13 = call ptr @register_dissector(ptr noundef @.str.34, ptr noundef @dissect_cesoeth, i32 noundef %12)
  store ptr %13, ptr @cesoeth_handle, align 8
  call void @llvm.lifetime.end.p0(i64 8, ptr %2) #3
  call void @llvm.lifetime.end.p0(i64 8, ptr %1) #3
  ret void
}