; Function Attrs: null_pointer_is_valid sspstrong uwtable
define hidden void @proto_register_cesoeth() local_unnamed_addr #0 {
  %1 = tail call i32 @proto_register_protocol(ptr noundef nonnull @.str.32, ptr noundef nonnull @.str.33, ptr noundef nonnull @.str.34)
  store i32 %1, ptr @proto_cesoeth, align 4
  tail call void @proto_register_field_array(i32 noundef %1, ptr noundef nonnull @proto_register_cesoeth.hf, i32 noundef 12)
  tail call void @proto_register_subtree_array(ptr noundef nonnull @proto_register_cesoeth.ett, i32 noundef 2)
  %2 = load i32, ptr @proto_cesoeth, align 4
  %3 = tail call ptr @expert_register_protocol(i32 noundef %2)
  tail call void @expert_register_field_array(ptr noundef %3, ptr noundef nonnull @proto_register_cesoeth.ei, i32 noundef 2)
  %4 = load i32, ptr @proto_cesoeth, align 4
  %5 = tail call ptr @prefs_register_protocol(i32 noundef %4, ptr noundef null)
  tail call void @prefs_register_bool_preference(ptr noundef %5, ptr noundef nonnull @.str.35, ptr noundef nonnull @.str.36, ptr noundef nonnull @.str.37, ptr noundef nonnull @has_rtp_header)
  tail call void @prefs_register_bool_preference(ptr noundef %5, ptr noundef nonnull @.str.38, ptr noundef nonnull @.str.39, ptr noundef nonnull @.str.40, ptr noundef nonnull @heuristic_rtp_header)
  %6 = load i32, ptr @proto_cesoeth, align 4
  %7 = tail call ptr @register_dissector(ptr noundef nonnull @.str.34, ptr noundef nonnull @dissect_cesoeth, i32 noundef %6)
  store ptr %7, ptr @cesoeth_handle, align 8
  ret void
}